
median-loops-unrolled.riscv：     文件格式 elf64-littleriscv


Disassembly of section .text:

0000000000000000 <_start>:
   0:	00000093          	li	ra,0
   4:	00000113          	li	sp,0
   8:	00000193          	li	gp,0
   c:	00000213          	li	tp,0
  10:	00000293          	li	t0,0
  14:	00000313          	li	t1,0
  18:	00000393          	li	t2,0
  1c:	00000413          	li	s0,0
  20:	00000493          	li	s1,0
  24:	00000513          	li	a0,0
  28:	00000593          	li	a1,0
  2c:	00000613          	li	a2,0
  30:	00000693          	li	a3,0
  34:	00000713          	li	a4,0
  38:	00000793          	li	a5,0
  3c:	00000813          	li	a6,0
  40:	00000893          	li	a7,0
  44:	00000913          	li	s2,0
  48:	00000993          	li	s3,0
  4c:	00000a13          	li	s4,0
  50:	00000a93          	li	s5,0
  54:	00000b13          	li	s6,0
  58:	00000b93          	li	s7,0
  5c:	00000c13          	li	s8,0
  60:	00000c93          	li	s9,0
  64:	00000d13          	li	s10,0
  68:	00000d93          	li	s11,0
  6c:	00000e13          	li	t3,0
  70:	00000e93          	li	t4,0
  74:	00000f13          	li	t5,0
  78:	00000f93          	li	t6,0
  7c:	00022117          	auipc	sp,0x22
  80:	6c410113          	add	sp,sp,1732 # 22740 <STACK>
  84:	06d000ef          	jal	8f0 <main>
  88:	1690006f          	j	9f0 <end>

000000000000008c <median>:
  8c:	00251793          	sll	a5,a0,0x2
  90:	00062023          	sw	zero,0(a2)
  94:	00f602b3          	add	t0,a2,a5
  98:	fe02ae23          	sw	zero,-4(t0)
  9c:	00200813          	li	a6,2
  a0:	14a85a63          	bge	a6,a0,1f4 <median+0x168>
  a4:	ffd5051b          	addw	a0,a0,-3
  a8:	02051313          	sll	t1,a0,0x20
  ac:	01e35393          	srl	t2,t1,0x1e
  b0:	00458693          	add	a3,a1,4
  b4:	00d388b3          	add	a7,t2,a3
  b8:	40b88733          	sub	a4,a7,a1
  bc:	ffc70e13          	add	t3,a4,-4
  c0:	002e5e93          	srl	t4,t3,0x2
  c4:	001e8f13          	add	t5,t4,1
  c8:	003f7f93          	and	t6,t5,3
  cc:	00058793          	mv	a5,a1
  d0:	00460713          	add	a4,a2,4
  d4:	080f8463          	beqz	t6,15c <median+0xd0>
  d8:	00100613          	li	a2,1
  dc:	04cf8e63          	beq	t6,a2,138 <median+0xac>
  e0:	030f8463          	beq	t6,a6,108 <median+0x7c>
  e4:	0005a283          	lw	t0,0(a1)
  e8:	0045a783          	lw	a5,4(a1)
  ec:	0085a803          	lw	a6,8(a1)
  f0:	22f2c263          	blt	t0,a5,314 <median+0x288>
  f4:	2502d663          	bge	t0,a6,340 <median+0x2b4>
  f8:	00028793          	mv	a5,t0
  fc:	00f72023          	sw	a5,0(a4)
 100:	00458793          	add	a5,a1,4
 104:	00470713          	add	a4,a4,4
 108:	0007a503          	lw	a0,0(a5)
 10c:	0047a303          	lw	t1,4(a5)
 110:	0087a583          	lw	a1,8(a5)
 114:	1c654663          	blt	a0,t1,2e0 <median+0x254>
 118:	20b54863          	blt	a0,a1,328 <median+0x29c>
 11c:	00058513          	mv	a0,a1
 120:	0065d463          	bge	a1,t1,128 <median+0x9c>
 124:	00030513          	mv	a0,t1
 128:	0005031b          	sext.w	t1,a0
 12c:	00672023          	sw	t1,0(a4)
 130:	00478793          	add	a5,a5,4
 134:	00470713          	add	a4,a4,4
 138:	0007a383          	lw	t2,0(a5)
 13c:	0047a683          	lw	a3,4(a5)
 140:	0087ae03          	lw	t3,8(a5)
 144:	16d3da63          	bge	t2,a3,2b8 <median+0x22c>
 148:	1bc6d463          	bge	a3,t3,2f0 <median+0x264>
 14c:	00d72023          	sw	a3,0(a4)
 150:	00478793          	add	a5,a5,4
 154:	00470713          	add	a4,a4,4
 158:	1f178263          	beq	a5,a7,33c <median+0x2b0>
 15c:	0007af03          	lw	t5,0(a5)
 160:	0047a603          	lw	a2,4(a5)
 164:	0087ae83          	lw	t4,8(a5)
 168:	0ecf5463          	bge	t5,a2,250 <median+0x1c4>
 16c:	13d65e63          	bge	a2,t4,2a8 <median+0x21c>
 170:	00c72023          	sw	a2,0(a4)
 174:	0047af83          	lw	t6,4(a5)
 178:	0087a503          	lw	a0,8(a5)
 17c:	00c7a283          	lw	t0,12(a5)
 180:	00478813          	add	a6,a5,4
 184:	00470713          	add	a4,a4,4
 188:	0aafd863          	bge	t6,a0,238 <median+0x1ac>
 18c:	10555663          	bge	a0,t0,298 <median+0x20c>
 190:	00a72023          	sw	a0,0(a4)
 194:	00482783          	lw	a5,4(a6)
 198:	00882303          	lw	t1,8(a6)
 19c:	00c82583          	lw	a1,12(a6)
 1a0:	0467cc63          	blt	a5,t1,1f8 <median+0x16c>
 1a4:	0eb7c663          	blt	a5,a1,290 <median+0x204>
 1a8:	00058793          	mv	a5,a1
 1ac:	0065d463          	bge	a1,t1,1b4 <median+0x128>
 1b0:	00030793          	mv	a5,t1
 1b4:	0007831b          	sext.w	t1,a5
 1b8:	00672223          	sw	t1,4(a4)
 1bc:	00882383          	lw	t2,8(a6)
 1c0:	00c82683          	lw	a3,12(a6)
 1c4:	01082e03          	lw	t3,16(a6)
 1c8:	04d3c863          	blt	t2,a3,218 <median+0x18c>
 1cc:	0bc3c663          	blt	t2,t3,278 <median+0x1ec>
 1d0:	000e0393          	mv	t2,t3
 1d4:	00de5463          	bge	t3,a3,1dc <median+0x150>
 1d8:	00068393          	mv	t2,a3
 1dc:	0003869b          	sext.w	a3,t2
 1e0:	00d72423          	sw	a3,8(a4)
 1e4:	00c80793          	add	a5,a6,12
 1e8:	00c70713          	add	a4,a4,12
 1ec:	f71798e3          	bne	a5,a7,15c <median+0xd0>
 1f0:	00008067          	ret
 1f4:	00008067          	ret
 1f8:	fcb340e3          	blt	t1,a1,1b8 <median+0x12c>
 1fc:	0005831b          	sext.w	t1,a1
 200:	faf5cae3          	blt	a1,a5,1b4 <median+0x128>
 204:	00672223          	sw	t1,4(a4)
 208:	00882383          	lw	t2,8(a6)
 20c:	00c82683          	lw	a3,12(a6)
 210:	01082e03          	lw	t3,16(a6)
 214:	fad3dce3          	bge	t2,a3,1cc <median+0x140>
 218:	fdc6c4e3          	blt	a3,t3,1e0 <median+0x154>
 21c:	000e069b          	sext.w	a3,t3
 220:	fa7e4ee3          	blt	t3,t2,1dc <median+0x150>
 224:	00d72423          	sw	a3,8(a4)
 228:	00c80793          	add	a5,a6,12
 22c:	00c70713          	add	a4,a4,12
 230:	f31796e3          	bne	a5,a7,15c <median+0xd0>
 234:	fbdff06f          	j	1f0 <median+0x164>
 238:	025fcc63          	blt	t6,t0,270 <median+0x1e4>
 23c:	00028f93          	mv	t6,t0
 240:	00a2d463          	bge	t0,a0,248 <median+0x1bc>
 244:	00050f93          	mv	t6,a0
 248:	000f851b          	sext.w	a0,t6
 24c:	f45ff06f          	j	190 <median+0x104>
 250:	01df4c63          	blt	t5,t4,268 <median+0x1dc>
 254:	000e8f13          	mv	t5,t4
 258:	00ced463          	bge	t4,a2,260 <median+0x1d4>
 25c:	00060f13          	mv	t5,a2
 260:	000f061b          	sext.w	a2,t5
 264:	f0dff06f          	j	170 <median+0xe4>
 268:	000f0613          	mv	a2,t5
 26c:	f05ff06f          	j	170 <median+0xe4>
 270:	000f8513          	mv	a0,t6
 274:	f1dff06f          	j	190 <median+0x104>
 278:	00038693          	mv	a3,t2
 27c:	00d72423          	sw	a3,8(a4)
 280:	00c80793          	add	a5,a6,12
 284:	00c70713          	add	a4,a4,12
 288:	ed179ae3          	bne	a5,a7,15c <median+0xd0>
 28c:	f65ff06f          	j	1f0 <median+0x164>
 290:	00078313          	mv	t1,a5
 294:	f25ff06f          	j	1b8 <median+0x12c>
 298:	0002851b          	sext.w	a0,t0
 29c:	eff2dae3          	bge	t0,t6,190 <median+0x104>
 2a0:	000f851b          	sext.w	a0,t6
 2a4:	eedff06f          	j	190 <median+0x104>
 2a8:	000e861b          	sext.w	a2,t4
 2ac:	edeed2e3          	bge	t4,t5,170 <median+0xe4>
 2b0:	000f061b          	sext.w	a2,t5
 2b4:	ebdff06f          	j	170 <median+0xe4>
 2b8:	05c3c263          	blt	t2,t3,2fc <median+0x270>
 2bc:	000e0393          	mv	t2,t3
 2c0:	00de5463          	bge	t3,a3,2c8 <median+0x23c>
 2c4:	00068393          	mv	t2,a3
 2c8:	0003869b          	sext.w	a3,t2
 2cc:	00d72023          	sw	a3,0(a4)
 2d0:	00478793          	add	a5,a5,4
 2d4:	00470713          	add	a4,a4,4
 2d8:	e91792e3          	bne	a5,a7,15c <median+0xd0>
 2dc:	0600006f          	j	33c <median+0x2b0>
 2e0:	e4b346e3          	blt	t1,a1,12c <median+0xa0>
 2e4:	0005831b          	sext.w	t1,a1
 2e8:	e4a5d2e3          	bge	a1,a0,12c <median+0xa0>
 2ec:	e3dff06f          	j	128 <median+0x9c>
 2f0:	000e069b          	sext.w	a3,t3
 2f4:	e47e5ce3          	bge	t3,t2,14c <median+0xc0>
 2f8:	fd1ff06f          	j	2c8 <median+0x23c>
 2fc:	00038693          	mv	a3,t2
 300:	00d72023          	sw	a3,0(a4)
 304:	00478793          	add	a5,a5,4
 308:	00470713          	add	a4,a4,4
 30c:	e51798e3          	bne	a5,a7,15c <median+0xd0>
 310:	02c0006f          	j	33c <median+0x2b0>
 314:	df07c4e3          	blt	a5,a6,fc <median+0x70>
 318:	0008079b          	sext.w	a5,a6
 31c:	de5850e3          	bge	a6,t0,fc <median+0x70>
 320:	0002879b          	sext.w	a5,t0
 324:	dd9ff06f          	j	fc <median+0x70>
 328:	00050313          	mv	t1,a0
 32c:	00672023          	sw	t1,0(a4)
 330:	00478793          	add	a5,a5,4
 334:	00470713          	add	a4,a4,4
 338:	e01ff06f          	j	138 <median+0xac>
 33c:	00008067          	ret
 340:	00080293          	mv	t0,a6
 344:	fcf85ee3          	bge	a6,a5,320 <median+0x294>
 348:	00078293          	mv	t0,a5
 34c:	0002879b          	sext.w	a5,t0
 350:	dadff06f          	j	fc <median+0x70>

0000000000000354 <setStats>:
 354:	00008067          	ret

0000000000000358 <memcpy>:
 358:	00b567b3          	or	a5,a0,a1
 35c:	00c7e2b3          	or	t0,a5,a2
 360:	0072f313          	and	t1,t0,7
 364:	00c506b3          	add	a3,a0,a2
 368:	10030863          	beqz	t1,478 <memcpy+0x120>
 36c:	00c58633          	add	a2,a1,a2
 370:	00050793          	mv	a5,a0
 374:	10d57063          	bgeu	a0,a3,474 <memcpy+0x11c>
 378:	40b60733          	sub	a4,a2,a1
 37c:	00777393          	and	t2,a4,7
 380:	0a038463          	beqz	t2,428 <memcpy+0xd0>
 384:	00100813          	li	a6,1
 388:	09038663          	beq	t2,a6,414 <memcpy+0xbc>
 38c:	00200893          	li	a7,2
 390:	07138a63          	beq	t2,a7,404 <memcpy+0xac>
 394:	00300e13          	li	t3,3
 398:	05c38e63          	beq	t2,t3,3f4 <memcpy+0x9c>
 39c:	00400e93          	li	t4,4
 3a0:	05d38263          	beq	t2,t4,3e4 <memcpy+0x8c>
 3a4:	00500f13          	li	t5,5
 3a8:	03e38663          	beq	t2,t5,3d4 <memcpy+0x7c>
 3ac:	00600f93          	li	t6,6
 3b0:	01f38a63          	beq	t2,t6,3c4 <memcpy+0x6c>
 3b4:	0005c283          	lbu	t0,0(a1)
 3b8:	00150793          	add	a5,a0,1
 3bc:	00158593          	add	a1,a1,1
 3c0:	00550023          	sb	t0,0(a0)
 3c4:	0005c303          	lbu	t1,0(a1)
 3c8:	00178793          	add	a5,a5,1
 3cc:	00158593          	add	a1,a1,1
 3d0:	fe678fa3          	sb	t1,-1(a5)
 3d4:	0005c683          	lbu	a3,0(a1)
 3d8:	00178793          	add	a5,a5,1
 3dc:	00158593          	add	a1,a1,1
 3e0:	fed78fa3          	sb	a3,-1(a5)
 3e4:	0005c703          	lbu	a4,0(a1)
 3e8:	00178793          	add	a5,a5,1
 3ec:	00158593          	add	a1,a1,1
 3f0:	fee78fa3          	sb	a4,-1(a5)
 3f4:	0005c383          	lbu	t2,0(a1)
 3f8:	00178793          	add	a5,a5,1
 3fc:	00158593          	add	a1,a1,1
 400:	fe778fa3          	sb	t2,-1(a5)
 404:	0005c803          	lbu	a6,0(a1)
 408:	00178793          	add	a5,a5,1
 40c:	00158593          	add	a1,a1,1
 410:	ff078fa3          	sb	a6,-1(a5)
 414:	0005c883          	lbu	a7,0(a1)
 418:	00158593          	add	a1,a1,1
 41c:	00178793          	add	a5,a5,1
 420:	ff178fa3          	sb	a7,-1(a5)
 424:	16c58c63          	beq	a1,a2,59c <memcpy+0x244>
 428:	0005ce03          	lbu	t3,0(a1)
 42c:	00858593          	add	a1,a1,8
 430:	00878793          	add	a5,a5,8
 434:	ffc78c23          	sb	t3,-8(a5)
 438:	ff95ce83          	lbu	t4,-7(a1)
 43c:	ffd78ca3          	sb	t4,-7(a5)
 440:	ffa5cf03          	lbu	t5,-6(a1)
 444:	ffe78d23          	sb	t5,-6(a5)
 448:	ffb5cf83          	lbu	t6,-5(a1)
 44c:	fff78da3          	sb	t6,-5(a5)
 450:	ffc5c283          	lbu	t0,-4(a1)
 454:	fe578e23          	sb	t0,-4(a5)
 458:	ffd5c303          	lbu	t1,-3(a1)
 45c:	fe678ea3          	sb	t1,-3(a5)
 460:	ffe5c683          	lbu	a3,-2(a1)
 464:	fed78f23          	sb	a3,-2(a5)
 468:	fff5c703          	lbu	a4,-1(a1)
 46c:	fee78fa3          	sb	a4,-1(a5)
 470:	fac59ce3          	bne	a1,a2,428 <memcpy+0xd0>
 474:	00008067          	ret
 478:	fed57ee3          	bgeu	a0,a3,474 <memcpy+0x11c>
 47c:	0005b603          	ld	a2,0(a1)
 480:	fff54393          	not	t2,a0
 484:	00768833          	add	a6,a3,t2
 488:	00385893          	srl	a7,a6,0x3
 48c:	00850793          	add	a5,a0,8
 490:	fec7bc23          	sd	a2,-8(a5)
 494:	00858593          	add	a1,a1,8
 498:	0078fe13          	and	t3,a7,7
 49c:	10d7f463          	bgeu	a5,a3,5a4 <memcpy+0x24c>
 4a0:	080e0c63          	beqz	t3,538 <memcpy+0x1e0>
 4a4:	00100e93          	li	t4,1
 4a8:	07de0e63          	beq	t3,t4,524 <memcpy+0x1cc>
 4ac:	00200f13          	li	t5,2
 4b0:	07ee0263          	beq	t3,t5,514 <memcpy+0x1bc>
 4b4:	00300f93          	li	t6,3
 4b8:	05fe0663          	beq	t3,t6,504 <memcpy+0x1ac>
 4bc:	00400293          	li	t0,4
 4c0:	025e0a63          	beq	t3,t0,4f4 <memcpy+0x19c>
 4c4:	00500313          	li	t1,5
 4c8:	006e0e63          	beq	t3,t1,4e4 <memcpy+0x18c>
 4cc:	00600713          	li	a4,6
 4d0:	0aee1c63          	bne	t3,a4,588 <memcpy+0x230>
 4d4:	0005b383          	ld	t2,0(a1)
 4d8:	00878793          	add	a5,a5,8
 4dc:	00858593          	add	a1,a1,8
 4e0:	fe77bc23          	sd	t2,-8(a5)
 4e4:	0005b803          	ld	a6,0(a1)
 4e8:	00878793          	add	a5,a5,8
 4ec:	00858593          	add	a1,a1,8
 4f0:	ff07bc23          	sd	a6,-8(a5)
 4f4:	0005b883          	ld	a7,0(a1)
 4f8:	00878793          	add	a5,a5,8
 4fc:	00858593          	add	a1,a1,8
 500:	ff17bc23          	sd	a7,-8(a5)
 504:	0005be03          	ld	t3,0(a1)
 508:	00878793          	add	a5,a5,8
 50c:	00858593          	add	a1,a1,8
 510:	ffc7bc23          	sd	t3,-8(a5)
 514:	0005be83          	ld	t4,0(a1)
 518:	00878793          	add	a5,a5,8
 51c:	00858593          	add	a1,a1,8
 520:	ffd7bc23          	sd	t4,-8(a5)
 524:	0005bf03          	ld	t5,0(a1)
 528:	00878793          	add	a5,a5,8
 52c:	00858593          	add	a1,a1,8
 530:	ffe7bc23          	sd	t5,-8(a5)
 534:	06d7f663          	bgeu	a5,a3,5a0 <memcpy+0x248>
 538:	0005bf83          	ld	t6,0(a1)
 53c:	04058593          	add	a1,a1,64
 540:	04078793          	add	a5,a5,64
 544:	fdf7b023          	sd	t6,-64(a5)
 548:	fc85b283          	ld	t0,-56(a1)
 54c:	fc57b423          	sd	t0,-56(a5)
 550:	fd05b303          	ld	t1,-48(a1)
 554:	fc67b823          	sd	t1,-48(a5)
 558:	fd85b703          	ld	a4,-40(a1)
 55c:	fce7bc23          	sd	a4,-40(a5)
 560:	fe05b603          	ld	a2,-32(a1)
 564:	fec7b023          	sd	a2,-32(a5)
 568:	fe85b383          	ld	t2,-24(a1)
 56c:	fe77b423          	sd	t2,-24(a5)
 570:	ff05b803          	ld	a6,-16(a1)
 574:	ff07b823          	sd	a6,-16(a5)
 578:	ff85b883          	ld	a7,-8(a1)
 57c:	ff17bc23          	sd	a7,-8(a5)
 580:	fad7ece3          	bltu	a5,a3,538 <memcpy+0x1e0>
 584:	00008067          	ret
 588:	0005b603          	ld	a2,0(a1)
 58c:	00878793          	add	a5,a5,8
 590:	00858593          	add	a1,a1,8
 594:	fec7bc23          	sd	a2,-8(a5)
 598:	f3dff06f          	j	4d4 <memcpy+0x17c>
 59c:	00008067          	ret
 5a0:	00008067          	ret
 5a4:	00008067          	ret

00000000000005a8 <memset>:
 5a8:	ff010113          	add	sp,sp,-16
 5ac:	00c567b3          	or	a5,a0,a2
 5b0:	00113423          	sd	ra,8(sp)
 5b4:	00813023          	sd	s0,0(sp)
 5b8:	0077f093          	and	ra,a5,7
 5bc:	00050413          	mv	s0,a0
 5c0:	00c506b3          	add	a3,a0,a2
 5c4:	02008263          	beqz	ra,5e8 <memset+0x40>
 5c8:	00d57663          	bgeu	a0,a3,5d4 <memset+0x2c>
 5cc:	0ff5f593          	zext.b	a1,a1
 5d0:	fd9ff0ef          	jal	5a8 <memset>
 5d4:	00813083          	ld	ra,8(sp)
 5d8:	00040513          	mv	a0,s0
 5dc:	00013403          	ld	s0,0(sp)
 5e0:	01010113          	add	sp,sp,16
 5e4:	00008067          	ret
 5e8:	0ff5f593          	zext.b	a1,a1
 5ec:	00859713          	sll	a4,a1,0x8
 5f0:	00b702b3          	add	t0,a4,a1
 5f4:	01029313          	sll	t1,t0,0x10
 5f8:	006283b3          	add	t2,t0,t1
 5fc:	02039513          	sll	a0,t2,0x20
 600:	00a38833          	add	a6,t2,a0
 604:	fcd478e3          	bgeu	s0,a3,5d4 <memset+0x2c>
 608:	fff44613          	not	a2,s0
 60c:	00c688b3          	add	a7,a3,a2
 610:	0038de13          	srl	t3,a7,0x3
 614:	00840793          	add	a5,s0,8
 618:	ff07bc23          	sd	a6,-8(a5)
 61c:	007e7e93          	and	t4,t3,7
 620:	fad7fae3          	bgeu	a5,a3,5d4 <memset+0x2c>
 624:	060e8463          	beqz	t4,68c <memset+0xe4>
 628:	00100f13          	li	t5,1
 62c:	05ee8a63          	beq	t4,t5,680 <memset+0xd8>
 630:	00200f93          	li	t6,2
 634:	05fe8263          	beq	t4,t6,678 <memset+0xd0>
 638:	00300093          	li	ra,3
 63c:	021e8a63          	beq	t4,ra,670 <memset+0xc8>
 640:	00400593          	li	a1,4
 644:	02be8263          	beq	t4,a1,668 <memset+0xc0>
 648:	00500713          	li	a4,5
 64c:	00ee8a63          	beq	t4,a4,660 <memset+0xb8>
 650:	00600293          	li	t0,6
 654:	065e9263          	bne	t4,t0,6b8 <memset+0x110>
 658:	0107b023          	sd	a6,0(a5)
 65c:	00878793          	add	a5,a5,8
 660:	0107b023          	sd	a6,0(a5)
 664:	00878793          	add	a5,a5,8
 668:	0107b023          	sd	a6,0(a5)
 66c:	00878793          	add	a5,a5,8
 670:	0107b023          	sd	a6,0(a5)
 674:	00878793          	add	a5,a5,8
 678:	0107b023          	sd	a6,0(a5)
 67c:	00878793          	add	a5,a5,8
 680:	00878793          	add	a5,a5,8
 684:	ff07bc23          	sd	a6,-8(a5)
 688:	f4d7f6e3          	bgeu	a5,a3,5d4 <memset+0x2c>
 68c:	0107b023          	sd	a6,0(a5)
 690:	0107b423          	sd	a6,8(a5)
 694:	0107b823          	sd	a6,16(a5)
 698:	0107bc23          	sd	a6,24(a5)
 69c:	0307b023          	sd	a6,32(a5)
 6a0:	0307b423          	sd	a6,40(a5)
 6a4:	0307b823          	sd	a6,48(a5)
 6a8:	0307bc23          	sd	a6,56(a5)
 6ac:	04078793          	add	a5,a5,64
 6b0:	fcd7eee3          	bltu	a5,a3,68c <memset+0xe4>
 6b4:	f21ff06f          	j	5d4 <memset+0x2c>
 6b8:	0107b023          	sd	a6,0(a5)
 6bc:	00878793          	add	a5,a5,8
 6c0:	f99ff06f          	j	658 <memset+0xb0>

00000000000006c4 <strlen>:
 6c4:	00054783          	lbu	a5,0(a0)
 6c8:	00078e63          	beqz	a5,6e4 <strlen+0x20>
 6cc:	00050293          	mv	t0,a0
 6d0:	0012c703          	lbu	a4,1(t0)
 6d4:	00128293          	add	t0,t0,1
 6d8:	fe071ce3          	bnez	a4,6d0 <strlen+0xc>
 6dc:	40a28533          	sub	a0,t0,a0
 6e0:	00008067          	ret
 6e4:	00000513          	li	a0,0
 6e8:	00008067          	ret

00000000000006ec <strnlen>:
 6ec:	00b506b3          	add	a3,a0,a1
 6f0:	00050793          	mv	a5,a0
 6f4:	10058a63          	beqz	a1,808 <strnlen+0x11c>
 6f8:	40a68733          	sub	a4,a3,a0
 6fc:	00777293          	and	t0,a4,7
 700:	08028063          	beqz	t0,780 <strnlen+0x94>
 704:	00100613          	li	a2,1
 708:	06c28463          	beq	t0,a2,770 <strnlen+0x84>
 70c:	00200313          	li	t1,2
 710:	04628a63          	beq	t0,t1,764 <strnlen+0x78>
 714:	00300393          	li	t2,3
 718:	04728063          	beq	t0,t2,758 <strnlen+0x6c>
 71c:	00400593          	li	a1,4
 720:	02b28663          	beq	t0,a1,74c <strnlen+0x60>
 724:	00500813          	li	a6,5
 728:	01028c63          	beq	t0,a6,740 <strnlen+0x54>
 72c:	00600893          	li	a7,6
 730:	0d129463          	bne	t0,a7,7f8 <strnlen+0x10c>
 734:	0007ce83          	lbu	t4,0(a5)
 738:	0a0e8c63          	beqz	t4,7f0 <strnlen+0x104>
 73c:	00178793          	add	a5,a5,1
 740:	0007cf03          	lbu	t5,0(a5)
 744:	0a0f0663          	beqz	t5,7f0 <strnlen+0x104>
 748:	00178793          	add	a5,a5,1
 74c:	0007cf83          	lbu	t6,0(a5)
 750:	0a0f8063          	beqz	t6,7f0 <strnlen+0x104>
 754:	00178793          	add	a5,a5,1
 758:	0007c703          	lbu	a4,0(a5)
 75c:	08070a63          	beqz	a4,7f0 <strnlen+0x104>
 760:	00178793          	add	a5,a5,1
 764:	0007c283          	lbu	t0,0(a5)
 768:	08028463          	beqz	t0,7f0 <strnlen+0x104>
 76c:	00178793          	add	a5,a5,1
 770:	0007c603          	lbu	a2,0(a5)
 774:	06060e63          	beqz	a2,7f0 <strnlen+0x104>
 778:	00178793          	add	a5,a5,1
 77c:	06f68663          	beq	a3,a5,7e8 <strnlen+0xfc>
 780:	0007c303          	lbu	t1,0(a5)
 784:	06030663          	beqz	t1,7f0 <strnlen+0x104>
 788:	0017c383          	lbu	t2,1(a5)
 78c:	00178793          	add	a5,a5,1
 790:	00078593          	mv	a1,a5
 794:	04038e63          	beqz	t2,7f0 <strnlen+0x104>
 798:	0017c803          	lbu	a6,1(a5)
 79c:	00178793          	add	a5,a5,1
 7a0:	04080863          	beqz	a6,7f0 <strnlen+0x104>
 7a4:	0025c883          	lbu	a7,2(a1)
 7a8:	00258793          	add	a5,a1,2
 7ac:	04088263          	beqz	a7,7f0 <strnlen+0x104>
 7b0:	0035ce03          	lbu	t3,3(a1)
 7b4:	00358793          	add	a5,a1,3
 7b8:	020e0c63          	beqz	t3,7f0 <strnlen+0x104>
 7bc:	0045ce83          	lbu	t4,4(a1)
 7c0:	00458793          	add	a5,a1,4
 7c4:	020e8663          	beqz	t4,7f0 <strnlen+0x104>
 7c8:	0055cf03          	lbu	t5,5(a1)
 7cc:	00558793          	add	a5,a1,5
 7d0:	020f0063          	beqz	t5,7f0 <strnlen+0x104>
 7d4:	0065cf83          	lbu	t6,6(a1)
 7d8:	00658793          	add	a5,a1,6
 7dc:	000f8a63          	beqz	t6,7f0 <strnlen+0x104>
 7e0:	00758793          	add	a5,a1,7
 7e4:	f8f69ee3          	bne	a3,a5,780 <strnlen+0x94>
 7e8:	40a68533          	sub	a0,a3,a0
 7ec:	00008067          	ret
 7f0:	40a78533          	sub	a0,a5,a0
 7f4:	00008067          	ret
 7f8:	00054e03          	lbu	t3,0(a0)
 7fc:	fe0e0ae3          	beqz	t3,7f0 <strnlen+0x104>
 800:	00150793          	add	a5,a0,1
 804:	f31ff06f          	j	734 <strnlen+0x48>
 808:	00000513          	li	a0,0
 80c:	00008067          	ret

0000000000000810 <strcmp>:
 810:	00054783          	lbu	a5,0(a0)
 814:	00158593          	add	a1,a1,1
 818:	00150513          	add	a0,a0,1
 81c:	fff5c703          	lbu	a4,-1(a1)
 820:	00078a63          	beqz	a5,834 <strcmp+0x24>
 824:	fee786e3          	beq	a5,a4,810 <strcmp>
 828:	0007851b          	sext.w	a0,a5
 82c:	40e5053b          	subw	a0,a0,a4
 830:	00008067          	ret
 834:	00000513          	li	a0,0
 838:	ff5ff06f          	j	82c <strcmp+0x1c>

000000000000083c <strcpy>:
 83c:	00050793          	mv	a5,a0
 840:	0005c703          	lbu	a4,0(a1)
 844:	00178793          	add	a5,a5,1
 848:	00158593          	add	a1,a1,1
 84c:	fee78fa3          	sb	a4,-1(a5)
 850:	fe0718e3          	bnez	a4,840 <strcpy+0x4>
 854:	00008067          	ret

0000000000000858 <atol>:
 858:	00054703          	lbu	a4,0(a0)
 85c:	02000693          	li	a3,32
 860:	00050793          	mv	a5,a0
 864:	00d71863          	bne	a4,a3,874 <atol+0x1c>
 868:	0017c703          	lbu	a4,1(a5)
 86c:	00178793          	add	a5,a5,1
 870:	fed70ce3          	beq	a4,a3,868 <atol+0x10>
 874:	02d00293          	li	t0,45
 878:	06570063          	beq	a4,t0,8d8 <atol+0x80>
 87c:	02b00313          	li	t1,43
 880:	04670063          	beq	a4,t1,8c0 <atol+0x68>
 884:	0007c383          	lbu	t2,0(a5)
 888:	00000593          	li	a1,0
 88c:	04038263          	beqz	t2,8d0 <atol+0x78>
 890:	00000513          	li	a0,0
 894:	00178793          	add	a5,a5,1
 898:	fd03861b          	addw	a2,t2,-48
 89c:	00251813          	sll	a6,a0,0x2
 8a0:	0007c383          	lbu	t2,0(a5)
 8a4:	00a80533          	add	a0,a6,a0
 8a8:	00151893          	sll	a7,a0,0x1
 8ac:	01160533          	add	a0,a2,a7
 8b0:	fe0392e3          	bnez	t2,894 <atol+0x3c>
 8b4:	02058063          	beqz	a1,8d4 <atol+0x7c>
 8b8:	40a00533          	neg	a0,a0
 8bc:	00008067          	ret
 8c0:	0017c383          	lbu	t2,1(a5)
 8c4:	00000593          	li	a1,0
 8c8:	00178793          	add	a5,a5,1
 8cc:	fc0392e3          	bnez	t2,890 <atol+0x38>
 8d0:	00000513          	li	a0,0
 8d4:	00008067          	ret
 8d8:	0017c383          	lbu	t2,1(a5)
 8dc:	00100593          	li	a1,1
 8e0:	00178793          	add	a5,a5,1
 8e4:	fa0396e3          	bnez	t2,890 <atol+0x38>
 8e8:	00000513          	li	a0,0
 8ec:	fe9ff06f          	j	8d4 <atol+0x7c>

00000000000008f0 <main>:
 8f0:	cd010113          	add	sp,sp,-816
 8f4:	0c800513          	li	a0,200
 8f8:	00010613          	mv	a2,sp
 8fc:	0001f597          	auipc	a1,0x1f
 900:	70458593          	add	a1,a1,1796 # 20000 <input_data>
 904:	32113423          	sd	ra,808(sp)
 908:	f84ff0ef          	jal	8c <median>
 90c:	00010793          	mv	a5,sp
 910:	00020717          	auipc	a4,0x20
 914:	a1070713          	add	a4,a4,-1520 # 20320 <verify_data>
 918:	00000513          	li	a0,0
 91c:	0c800e13          	li	t3,200
 920:	0007a603          	lw	a2,0(a5)
 924:	00072583          	lw	a1,0(a4)
 928:	0047a683          	lw	a3,4(a5)
 92c:	00472803          	lw	a6,4(a4)
 930:	0006809b          	sext.w	ra,a3
 934:	0ac59a63          	bne	a1,a2,9e8 <main+0xf8>
 938:	0025051b          	addw	a0,a0,2
 93c:	0b009063          	bne	ra,a6,9dc <main+0xec>
 940:	0087a283          	lw	t0,8(a5)
 944:	00872383          	lw	t2,8(a4)
 948:	00c7ae83          	lw	t4,12(a5)
 94c:	00c72f03          	lw	t5,12(a4)
 950:	00878313          	add	t1,a5,8
 954:	00870893          	add	a7,a4,8
 958:	000e8f9b          	sext.w	t6,t4
 95c:	08539663          	bne	t2,t0,9e8 <main+0xf8>
 960:	0025051b          	addw	a0,a0,2
 964:	07ef9c63          	bne	t6,t5,9dc <main+0xec>
 968:	0107a603          	lw	a2,16(a5)
 96c:	01072583          	lw	a1,16(a4)
 970:	0147a683          	lw	a3,20(a5)
 974:	01472803          	lw	a6,20(a4)
 978:	0006809b          	sext.w	ra,a3
 97c:	06c59663          	bne	a1,a2,9e8 <main+0xf8>
 980:	0025051b          	addw	a0,a0,2
 984:	05009c63          	bne	ra,a6,9dc <main+0xec>
 988:	0187a283          	lw	t0,24(a5)
 98c:	01872383          	lw	t2,24(a4)
 990:	01c7ae83          	lw	t4,28(a5)
 994:	01c72f03          	lw	t5,28(a4)
 998:	000e8f9b          	sext.w	t6,t4
 99c:	04539663          	bne	t2,t0,9e8 <main+0xf8>
 9a0:	0025051b          	addw	a0,a0,2
 9a4:	03ef9c63          	bne	t6,t5,9dc <main+0xec>
 9a8:	0207a583          	lw	a1,32(a5)
 9ac:	02072603          	lw	a2,32(a4)
 9b0:	0247a783          	lw	a5,36(a5)
 9b4:	02472703          	lw	a4,36(a4)
 9b8:	0007869b          	sext.w	a3,a5
 9bc:	02b61663          	bne	a2,a1,9e8 <main+0xf8>
 9c0:	0025051b          	addw	a0,a0,2
 9c4:	00e69c63          	bne	a3,a4,9dc <main+0xec>
 9c8:	02030793          	add	a5,t1,32
 9cc:	02088713          	add	a4,a7,32
 9d0:	f5c518e3          	bne	a0,t3,920 <main+0x30>
 9d4:	00bc6537          	lui	a0,0xbc6
 9d8:	14e50513          	add	a0,a0,334 # bc614e <STACK+0xba3a0e>
 9dc:	32813083          	ld	ra,808(sp)
 9e0:	33010113          	add	sp,sp,816
 9e4:	00008067          	ret
 9e8:	0015051b          	addw	a0,a0,1
 9ec:	ff1ff06f          	j	9dc <main+0xec>

00000000000009f0 <end>:
 9f0:	00000013          	nop
 9f4:	00000013          	nop
 9f8:	00000013          	nop
 9fc:	00000013          	nop
 a00:	00000013          	nop
 a04:	00000013          	nop

0000000000000a08 <_last>:
 a08:	fe9ff06f          	j	9f0 <end>
