
qsort-loops-unrolled.riscv：     文件格式 elf64-littleriscv


Disassembly of section .text:

0000000000000000 <_start>:
   0:	00000093          	li	ra,0
   4:	00000113          	li	sp,0
   8:	00000193          	li	gp,0
   c:	00000213          	li	tp,0
  10:	00000293          	li	t0,0
  14:	00000313          	li	t1,0
  18:	00000393          	li	t2,0
  1c:	00000413          	li	s0,0
  20:	00000493          	li	s1,0
  24:	00000513          	li	a0,0
  28:	00000593          	li	a1,0
  2c:	00000613          	li	a2,0
  30:	00000693          	li	a3,0
  34:	00000713          	li	a4,0
  38:	00000793          	li	a5,0
  3c:	00000813          	li	a6,0
  40:	00000893          	li	a7,0
  44:	00000913          	li	s2,0
  48:	00000993          	li	s3,0
  4c:	00000a13          	li	s4,0
  50:	00000a93          	li	s5,0
  54:	00000b13          	li	s6,0
  58:	00000b93          	li	s7,0
  5c:	00000c13          	li	s8,0
  60:	00000c93          	li	s9,0
  64:	00000d13          	li	s10,0
  68:	00000d93          	li	s11,0
  6c:	00000e13          	li	t3,0
  70:	00000e93          	li	t4,0
  74:	00000f13          	li	t5,0
  78:	00000f93          	li	t6,0
  7c:	00007117          	auipc	sp,0x7
  80:	bd410113          	add	sp,sp,-1068 # 6c50 <STACK>
  84:	04d000ef          	jal	8d0 <main>
  88:	1ad0006f          	j	a34 <end>

000000000000008c <sort>:
  8c:	e7010113          	add	sp,sp,-400
  90:	00251513          	sll	a0,a0,0x2
  94:	00010f13          	mv	t5,sp
  98:	00058e93          	mv	t4,a1
  9c:	00a588b3          	add	a7,a1,a0
  a0:	00458613          	add	a2,a1,4
  a4:	000f0313          	mv	t1,t5
  a8:	02400e13          	li	t3,36
  ac:	40c887b3          	sub	a5,a7,a2
  b0:	16fe4e63          	blt	t3,a5,22c <sort+0x1a0>
  b4:	ffc60513          	add	a0,a2,-4
  b8:	15167e63          	bgeu	a2,a7,214 <sort+0x188>
  bc:	40a607b3          	sub	a5,a2,a0
  c0:	ffc78593          	add	a1,a5,-4
  c4:	0025d713          	srl	a4,a1,0x2
  c8:	00170813          	add	a6,a4,1
  cc:	00787f93          	and	t6,a6,7
  d0:	00062383          	lw	t2,0(a2)
  d4:	00060793          	mv	a5,a2
  d8:	0a0f8463          	beqz	t6,180 <sort+0xf4>
  dc:	00100693          	li	a3,1
  e0:	08df8663          	beq	t6,a3,16c <sort+0xe0>
  e4:	00200293          	li	t0,2
  e8:	065f8a63          	beq	t6,t0,15c <sort+0xd0>
  ec:	00300593          	li	a1,3
  f0:	04bf8e63          	beq	t6,a1,14c <sort+0xc0>
  f4:	00400713          	li	a4,4
  f8:	04ef8263          	beq	t6,a4,13c <sort+0xb0>
  fc:	00500813          	li	a6,5
 100:	030f8663          	beq	t6,a6,12c <sort+0xa0>
 104:	00600693          	li	a3,6
 108:	00df8a63          	beq	t6,a3,11c <sort+0x90>
 10c:	ffc62f83          	lw	t6,-4(a2)
 110:	0ff3dc63          	bge	t2,t6,208 <sort+0x17c>
 114:	01f62023          	sw	t6,0(a2)
 118:	ffc60793          	add	a5,a2,-4
 11c:	ffc7a283          	lw	t0,-4(a5)
 120:	0e53d463          	bge	t2,t0,208 <sort+0x17c>
 124:	0057a023          	sw	t0,0(a5)
 128:	ffc78793          	add	a5,a5,-4
 12c:	ffc7a583          	lw	a1,-4(a5)
 130:	0cb3dc63          	bge	t2,a1,208 <sort+0x17c>
 134:	00b7a023          	sw	a1,0(a5)
 138:	ffc78793          	add	a5,a5,-4
 13c:	ffc7a703          	lw	a4,-4(a5)
 140:	0ce3d463          	bge	t2,a4,208 <sort+0x17c>
 144:	00e7a023          	sw	a4,0(a5)
 148:	ffc78793          	add	a5,a5,-4
 14c:	ffc7a803          	lw	a6,-4(a5)
 150:	0b03dc63          	bge	t2,a6,208 <sort+0x17c>
 154:	0107a023          	sw	a6,0(a5)
 158:	ffc78793          	add	a5,a5,-4
 15c:	ffc7a683          	lw	a3,-4(a5)
 160:	0ad3d463          	bge	t2,a3,208 <sort+0x17c>
 164:	00d7a023          	sw	a3,0(a5)
 168:	ffc78793          	add	a5,a5,-4
 16c:	ffc7af83          	lw	t6,-4(a5)
 170:	09f3dc63          	bge	t2,t6,208 <sort+0x17c>
 174:	01f7a023          	sw	t6,0(a5)
 178:	ffc78793          	add	a5,a5,-4
 17c:	08f50663          	beq	a0,a5,208 <sort+0x17c>
 180:	ffc7a283          	lw	t0,-4(a5)
 184:	0853d263          	bge	t2,t0,208 <sort+0x17c>
 188:	ff87a583          	lw	a1,-8(a5)
 18c:	0057a023          	sw	t0,0(a5)
 190:	ffc78793          	add	a5,a5,-4
 194:	00078713          	mv	a4,a5
 198:	06b3d863          	bge	t2,a1,208 <sort+0x17c>
 19c:	ff87a803          	lw	a6,-8(a5)
 1a0:	00b7a023          	sw	a1,0(a5)
 1a4:	ffc78793          	add	a5,a5,-4
 1a8:	0703d063          	bge	t2,a6,208 <sort+0x17c>
 1ac:	0107a023          	sw	a6,0(a5)
 1b0:	ff472683          	lw	a3,-12(a4)
 1b4:	ff870793          	add	a5,a4,-8
 1b8:	04d3d863          	bge	t2,a3,208 <sort+0x17c>
 1bc:	ff072f83          	lw	t6,-16(a4)
 1c0:	fed72c23          	sw	a3,-8(a4)
 1c4:	ff470793          	add	a5,a4,-12
 1c8:	05f3d063          	bge	t2,t6,208 <sort+0x17c>
 1cc:	fec72283          	lw	t0,-20(a4)
 1d0:	fff72a23          	sw	t6,-12(a4)
 1d4:	ff070793          	add	a5,a4,-16
 1d8:	0253d863          	bge	t2,t0,208 <sort+0x17c>
 1dc:	fe872803          	lw	a6,-24(a4)
 1e0:	fe572823          	sw	t0,-16(a4)
 1e4:	fec70793          	add	a5,a4,-20
 1e8:	0303d063          	bge	t2,a6,208 <sort+0x17c>
 1ec:	fe472583          	lw	a1,-28(a4)
 1f0:	ff072623          	sw	a6,-20(a4)
 1f4:	fe870793          	add	a5,a4,-24
 1f8:	00b3d863          	bge	t2,a1,208 <sort+0x17c>
 1fc:	feb72423          	sw	a1,-24(a4)
 200:	fe470793          	add	a5,a4,-28
 204:	f6f51ee3          	bne	a0,a5,180 <sort+0xf4>
 208:	0077a023          	sw	t2,0(a5)
 20c:	00460613          	add	a2,a2,4
 210:	eb1666e3          	bltu	a2,a7,bc <sort+0x30>
 214:	11e30c63          	beq	t1,t5,32c <sort+0x2a0>
 218:	00033883          	ld	a7,0(t1)
 21c:	ff833603          	ld	a2,-8(t1)
 220:	ff030313          	add	t1,t1,-16
 224:	40c887b3          	sub	a5,a7,a2
 228:	e8fe56e3          	bge	t3,a5,b4 <sort+0x28>
 22c:	41d60733          	sub	a4,a2,t4
 230:	41d882b3          	sub	t0,a7,t4
 234:	40275393          	sra	t2,a4,0x2
 238:	4022d593          	sra	a1,t0,0x2
 23c:	00b386b3          	add	a3,t2,a1
 240:	03f6d813          	srl	a6,a3,0x3f
 244:	00d80fb3          	add	t6,a6,a3
 248:	401fd513          	sra	a0,t6,0x1
 24c:	00251793          	sll	a5,a0,0x2
 250:	ffc78293          	add	t0,a5,-4
 254:	00062703          	lw	a4,0(a2)
 258:	005e83b3          	add	t2,t4,t0
 25c:	0003a683          	lw	a3,0(t2)
 260:	00e3a023          	sw	a4,0(t2)
 264:	ffc62583          	lw	a1,-4(a2)
 268:	00d62023          	sw	a3,0(a2)
 26c:	ffc8a703          	lw	a4,-4(a7)
 270:	00b75a63          	bge	a4,a1,284 <sort+0x1f8>
 274:	fee62e23          	sw	a4,-4(a2)
 278:	feb8ae23          	sw	a1,-4(a7)
 27c:	00062683          	lw	a3,0(a2)
 280:	00058713          	mv	a4,a1
 284:	00d75863          	bge	a4,a3,294 <sort+0x208>
 288:	00e62023          	sw	a4,0(a2)
 28c:	fed8ae23          	sw	a3,-4(a7)
 290:	00062683          	lw	a3,0(a2)
 294:	ffc62803          	lw	a6,-4(a2)
 298:	0106d863          	bge	a3,a6,2a8 <sort+0x21c>
 29c:	fed62e23          	sw	a3,-4(a2)
 2a0:	01062023          	sw	a6,0(a2)
 2a4:	00080693          	mv	a3,a6
 2a8:	00460513          	add	a0,a2,4
 2ac:	00088793          	mv	a5,a7
 2b0:	00052f83          	lw	t6,0(a0)
 2b4:	00450513          	add	a0,a0,4
 2b8:	fedfcce3          	blt	t6,a3,2b0 <sort+0x224>
 2bc:	ff87a383          	lw	t2,-8(a5)
 2c0:	00078293          	mv	t0,a5
 2c4:	ffc78793          	add	a5,a5,-4
 2c8:	fe76cae3          	blt	a3,t2,2bc <sort+0x230>
 2cc:	00a7e863          	bltu	a5,a0,2dc <sort+0x250>
 2d0:	fe752e23          	sw	t2,-4(a0)
 2d4:	fff7ae23          	sw	t6,-4(a5)
 2d8:	fd9ff06f          	j	2b0 <sort+0x224>
 2dc:	40a885b3          	sub	a1,a7,a0
 2e0:	00762023          	sw	t2,0(a2)
 2e4:	4025d713          	sra	a4,a1,0x2
 2e8:	40c78833          	sub	a6,a5,a2
 2ec:	fed7ae23          	sw	a3,-4(a5)
 2f0:	00170f93          	add	t6,a4,1
 2f4:	40285393          	sra	t2,a6,0x2
 2f8:	01030693          	add	a3,t1,16
 2fc:	ff828293          	add	t0,t0,-8
 300:	007fcc63          	blt	t6,t2,318 <sort+0x28c>
 304:	01133823          	sd	a7,16(t1)
 308:	00a33423          	sd	a0,8(t1)
 30c:	00028893          	mv	a7,t0
 310:	00068313          	mv	t1,a3
 314:	d99ff06f          	j	ac <sort+0x20>
 318:	00c33423          	sd	a2,8(t1)
 31c:	00533823          	sd	t0,16(t1)
 320:	00050613          	mv	a2,a0
 324:	00068313          	mv	t1,a3
 328:	d85ff06f          	j	ac <sort+0x20>
 32c:	19010113          	add	sp,sp,400
 330:	00008067          	ret

0000000000000334 <setStats>:
 334:	00008067          	ret

0000000000000338 <memcpy>:
 338:	00b567b3          	or	a5,a0,a1
 33c:	00c7e2b3          	or	t0,a5,a2
 340:	0072f313          	and	t1,t0,7
 344:	00c506b3          	add	a3,a0,a2
 348:	10030863          	beqz	t1,458 <memcpy+0x120>
 34c:	00c58633          	add	a2,a1,a2
 350:	00050793          	mv	a5,a0
 354:	10d57063          	bgeu	a0,a3,454 <memcpy+0x11c>
 358:	40b60733          	sub	a4,a2,a1
 35c:	00777393          	and	t2,a4,7
 360:	0a038463          	beqz	t2,408 <memcpy+0xd0>
 364:	00100813          	li	a6,1
 368:	09038663          	beq	t2,a6,3f4 <memcpy+0xbc>
 36c:	00200893          	li	a7,2
 370:	07138a63          	beq	t2,a7,3e4 <memcpy+0xac>
 374:	00300e13          	li	t3,3
 378:	05c38e63          	beq	t2,t3,3d4 <memcpy+0x9c>
 37c:	00400e93          	li	t4,4
 380:	05d38263          	beq	t2,t4,3c4 <memcpy+0x8c>
 384:	00500f13          	li	t5,5
 388:	03e38663          	beq	t2,t5,3b4 <memcpy+0x7c>
 38c:	00600f93          	li	t6,6
 390:	01f38a63          	beq	t2,t6,3a4 <memcpy+0x6c>
 394:	0005c283          	lbu	t0,0(a1)
 398:	00150793          	add	a5,a0,1
 39c:	00158593          	add	a1,a1,1
 3a0:	00550023          	sb	t0,0(a0)
 3a4:	0005c303          	lbu	t1,0(a1)
 3a8:	00178793          	add	a5,a5,1
 3ac:	00158593          	add	a1,a1,1
 3b0:	fe678fa3          	sb	t1,-1(a5)
 3b4:	0005c683          	lbu	a3,0(a1)
 3b8:	00178793          	add	a5,a5,1
 3bc:	00158593          	add	a1,a1,1
 3c0:	fed78fa3          	sb	a3,-1(a5)
 3c4:	0005c703          	lbu	a4,0(a1)
 3c8:	00178793          	add	a5,a5,1
 3cc:	00158593          	add	a1,a1,1
 3d0:	fee78fa3          	sb	a4,-1(a5)
 3d4:	0005c383          	lbu	t2,0(a1)
 3d8:	00178793          	add	a5,a5,1
 3dc:	00158593          	add	a1,a1,1
 3e0:	fe778fa3          	sb	t2,-1(a5)
 3e4:	0005c803          	lbu	a6,0(a1)
 3e8:	00178793          	add	a5,a5,1
 3ec:	00158593          	add	a1,a1,1
 3f0:	ff078fa3          	sb	a6,-1(a5)
 3f4:	0005c883          	lbu	a7,0(a1)
 3f8:	00158593          	add	a1,a1,1
 3fc:	00178793          	add	a5,a5,1
 400:	ff178fa3          	sb	a7,-1(a5)
 404:	16c58c63          	beq	a1,a2,57c <memcpy+0x244>
 408:	0005ce03          	lbu	t3,0(a1)
 40c:	00858593          	add	a1,a1,8
 410:	00878793          	add	a5,a5,8
 414:	ffc78c23          	sb	t3,-8(a5)
 418:	ff95ce83          	lbu	t4,-7(a1)
 41c:	ffd78ca3          	sb	t4,-7(a5)
 420:	ffa5cf03          	lbu	t5,-6(a1)
 424:	ffe78d23          	sb	t5,-6(a5)
 428:	ffb5cf83          	lbu	t6,-5(a1)
 42c:	fff78da3          	sb	t6,-5(a5)
 430:	ffc5c283          	lbu	t0,-4(a1)
 434:	fe578e23          	sb	t0,-4(a5)
 438:	ffd5c303          	lbu	t1,-3(a1)
 43c:	fe678ea3          	sb	t1,-3(a5)
 440:	ffe5c683          	lbu	a3,-2(a1)
 444:	fed78f23          	sb	a3,-2(a5)
 448:	fff5c703          	lbu	a4,-1(a1)
 44c:	fee78fa3          	sb	a4,-1(a5)
 450:	fac59ce3          	bne	a1,a2,408 <memcpy+0xd0>
 454:	00008067          	ret
 458:	fed57ee3          	bgeu	a0,a3,454 <memcpy+0x11c>
 45c:	0005b603          	ld	a2,0(a1)
 460:	fff54393          	not	t2,a0
 464:	00768833          	add	a6,a3,t2
 468:	00385893          	srl	a7,a6,0x3
 46c:	00850793          	add	a5,a0,8
 470:	fec7bc23          	sd	a2,-8(a5)
 474:	00858593          	add	a1,a1,8
 478:	0078fe13          	and	t3,a7,7
 47c:	10d7f463          	bgeu	a5,a3,584 <memcpy+0x24c>
 480:	080e0c63          	beqz	t3,518 <memcpy+0x1e0>
 484:	00100e93          	li	t4,1
 488:	07de0e63          	beq	t3,t4,504 <memcpy+0x1cc>
 48c:	00200f13          	li	t5,2
 490:	07ee0263          	beq	t3,t5,4f4 <memcpy+0x1bc>
 494:	00300f93          	li	t6,3
 498:	05fe0663          	beq	t3,t6,4e4 <memcpy+0x1ac>
 49c:	00400293          	li	t0,4
 4a0:	025e0a63          	beq	t3,t0,4d4 <memcpy+0x19c>
 4a4:	00500313          	li	t1,5
 4a8:	006e0e63          	beq	t3,t1,4c4 <memcpy+0x18c>
 4ac:	00600713          	li	a4,6
 4b0:	0aee1c63          	bne	t3,a4,568 <memcpy+0x230>
 4b4:	0005b383          	ld	t2,0(a1)
 4b8:	00878793          	add	a5,a5,8
 4bc:	00858593          	add	a1,a1,8
 4c0:	fe77bc23          	sd	t2,-8(a5)
 4c4:	0005b803          	ld	a6,0(a1)
 4c8:	00878793          	add	a5,a5,8
 4cc:	00858593          	add	a1,a1,8
 4d0:	ff07bc23          	sd	a6,-8(a5)
 4d4:	0005b883          	ld	a7,0(a1)
 4d8:	00878793          	add	a5,a5,8
 4dc:	00858593          	add	a1,a1,8
 4e0:	ff17bc23          	sd	a7,-8(a5)
 4e4:	0005be03          	ld	t3,0(a1)
 4e8:	00878793          	add	a5,a5,8
 4ec:	00858593          	add	a1,a1,8
 4f0:	ffc7bc23          	sd	t3,-8(a5)
 4f4:	0005be83          	ld	t4,0(a1)
 4f8:	00878793          	add	a5,a5,8
 4fc:	00858593          	add	a1,a1,8
 500:	ffd7bc23          	sd	t4,-8(a5)
 504:	0005bf03          	ld	t5,0(a1)
 508:	00878793          	add	a5,a5,8
 50c:	00858593          	add	a1,a1,8
 510:	ffe7bc23          	sd	t5,-8(a5)
 514:	06d7f663          	bgeu	a5,a3,580 <memcpy+0x248>
 518:	0005bf83          	ld	t6,0(a1)
 51c:	04058593          	add	a1,a1,64
 520:	04078793          	add	a5,a5,64
 524:	fdf7b023          	sd	t6,-64(a5)
 528:	fc85b283          	ld	t0,-56(a1)
 52c:	fc57b423          	sd	t0,-56(a5)
 530:	fd05b303          	ld	t1,-48(a1)
 534:	fc67b823          	sd	t1,-48(a5)
 538:	fd85b703          	ld	a4,-40(a1)
 53c:	fce7bc23          	sd	a4,-40(a5)
 540:	fe05b603          	ld	a2,-32(a1)
 544:	fec7b023          	sd	a2,-32(a5)
 548:	fe85b383          	ld	t2,-24(a1)
 54c:	fe77b423          	sd	t2,-24(a5)
 550:	ff05b803          	ld	a6,-16(a1)
 554:	ff07b823          	sd	a6,-16(a5)
 558:	ff85b883          	ld	a7,-8(a1)
 55c:	ff17bc23          	sd	a7,-8(a5)
 560:	fad7ece3          	bltu	a5,a3,518 <memcpy+0x1e0>
 564:	00008067          	ret
 568:	0005b603          	ld	a2,0(a1)
 56c:	00878793          	add	a5,a5,8
 570:	00858593          	add	a1,a1,8
 574:	fec7bc23          	sd	a2,-8(a5)
 578:	f3dff06f          	j	4b4 <memcpy+0x17c>
 57c:	00008067          	ret
 580:	00008067          	ret
 584:	00008067          	ret

0000000000000588 <memset>:
 588:	ff010113          	add	sp,sp,-16
 58c:	00c567b3          	or	a5,a0,a2
 590:	00113423          	sd	ra,8(sp)
 594:	00813023          	sd	s0,0(sp)
 598:	0077f093          	and	ra,a5,7
 59c:	00050413          	mv	s0,a0
 5a0:	00c506b3          	add	a3,a0,a2
 5a4:	02008263          	beqz	ra,5c8 <memset+0x40>
 5a8:	00d57663          	bgeu	a0,a3,5b4 <memset+0x2c>
 5ac:	0ff5f593          	zext.b	a1,a1
 5b0:	fd9ff0ef          	jal	588 <memset>
 5b4:	00813083          	ld	ra,8(sp)
 5b8:	00040513          	mv	a0,s0
 5bc:	00013403          	ld	s0,0(sp)
 5c0:	01010113          	add	sp,sp,16
 5c4:	00008067          	ret
 5c8:	0ff5f593          	zext.b	a1,a1
 5cc:	00859713          	sll	a4,a1,0x8
 5d0:	00b702b3          	add	t0,a4,a1
 5d4:	01029313          	sll	t1,t0,0x10
 5d8:	006283b3          	add	t2,t0,t1
 5dc:	02039513          	sll	a0,t2,0x20
 5e0:	00a38833          	add	a6,t2,a0
 5e4:	fcd478e3          	bgeu	s0,a3,5b4 <memset+0x2c>
 5e8:	fff44613          	not	a2,s0
 5ec:	00c688b3          	add	a7,a3,a2
 5f0:	0038de13          	srl	t3,a7,0x3
 5f4:	00840793          	add	a5,s0,8
 5f8:	ff07bc23          	sd	a6,-8(a5)
 5fc:	007e7e93          	and	t4,t3,7
 600:	fad7fae3          	bgeu	a5,a3,5b4 <memset+0x2c>
 604:	060e8463          	beqz	t4,66c <memset+0xe4>
 608:	00100f13          	li	t5,1
 60c:	05ee8a63          	beq	t4,t5,660 <memset+0xd8>
 610:	00200f93          	li	t6,2
 614:	05fe8263          	beq	t4,t6,658 <memset+0xd0>
 618:	00300093          	li	ra,3
 61c:	021e8a63          	beq	t4,ra,650 <memset+0xc8>
 620:	00400593          	li	a1,4
 624:	02be8263          	beq	t4,a1,648 <memset+0xc0>
 628:	00500713          	li	a4,5
 62c:	00ee8a63          	beq	t4,a4,640 <memset+0xb8>
 630:	00600293          	li	t0,6
 634:	065e9263          	bne	t4,t0,698 <memset+0x110>
 638:	0107b023          	sd	a6,0(a5)
 63c:	00878793          	add	a5,a5,8
 640:	0107b023          	sd	a6,0(a5)
 644:	00878793          	add	a5,a5,8
 648:	0107b023          	sd	a6,0(a5)
 64c:	00878793          	add	a5,a5,8
 650:	0107b023          	sd	a6,0(a5)
 654:	00878793          	add	a5,a5,8
 658:	0107b023          	sd	a6,0(a5)
 65c:	00878793          	add	a5,a5,8
 660:	00878793          	add	a5,a5,8
 664:	ff07bc23          	sd	a6,-8(a5)
 668:	f4d7f6e3          	bgeu	a5,a3,5b4 <memset+0x2c>
 66c:	0107b023          	sd	a6,0(a5)
 670:	0107b423          	sd	a6,8(a5)
 674:	0107b823          	sd	a6,16(a5)
 678:	0107bc23          	sd	a6,24(a5)
 67c:	0307b023          	sd	a6,32(a5)
 680:	0307b423          	sd	a6,40(a5)
 684:	0307b823          	sd	a6,48(a5)
 688:	0307bc23          	sd	a6,56(a5)
 68c:	04078793          	add	a5,a5,64
 690:	fcd7eee3          	bltu	a5,a3,66c <memset+0xe4>
 694:	f21ff06f          	j	5b4 <memset+0x2c>
 698:	0107b023          	sd	a6,0(a5)
 69c:	00878793          	add	a5,a5,8
 6a0:	f99ff06f          	j	638 <memset+0xb0>

00000000000006a4 <strlen>:
 6a4:	00054783          	lbu	a5,0(a0)
 6a8:	00078e63          	beqz	a5,6c4 <strlen+0x20>
 6ac:	00050293          	mv	t0,a0
 6b0:	0012c703          	lbu	a4,1(t0)
 6b4:	00128293          	add	t0,t0,1
 6b8:	fe071ce3          	bnez	a4,6b0 <strlen+0xc>
 6bc:	40a28533          	sub	a0,t0,a0
 6c0:	00008067          	ret
 6c4:	00000513          	li	a0,0
 6c8:	00008067          	ret

00000000000006cc <strnlen>:
 6cc:	00b506b3          	add	a3,a0,a1
 6d0:	00050793          	mv	a5,a0
 6d4:	10058a63          	beqz	a1,7e8 <strnlen+0x11c>
 6d8:	40a68733          	sub	a4,a3,a0
 6dc:	00777293          	and	t0,a4,7
 6e0:	08028063          	beqz	t0,760 <strnlen+0x94>
 6e4:	00100613          	li	a2,1
 6e8:	06c28463          	beq	t0,a2,750 <strnlen+0x84>
 6ec:	00200313          	li	t1,2
 6f0:	04628a63          	beq	t0,t1,744 <strnlen+0x78>
 6f4:	00300393          	li	t2,3
 6f8:	04728063          	beq	t0,t2,738 <strnlen+0x6c>
 6fc:	00400593          	li	a1,4
 700:	02b28663          	beq	t0,a1,72c <strnlen+0x60>
 704:	00500813          	li	a6,5
 708:	01028c63          	beq	t0,a6,720 <strnlen+0x54>
 70c:	00600893          	li	a7,6
 710:	0d129463          	bne	t0,a7,7d8 <strnlen+0x10c>
 714:	0007ce83          	lbu	t4,0(a5)
 718:	0a0e8c63          	beqz	t4,7d0 <strnlen+0x104>
 71c:	00178793          	add	a5,a5,1
 720:	0007cf03          	lbu	t5,0(a5)
 724:	0a0f0663          	beqz	t5,7d0 <strnlen+0x104>
 728:	00178793          	add	a5,a5,1
 72c:	0007cf83          	lbu	t6,0(a5)
 730:	0a0f8063          	beqz	t6,7d0 <strnlen+0x104>
 734:	00178793          	add	a5,a5,1
 738:	0007c703          	lbu	a4,0(a5)
 73c:	08070a63          	beqz	a4,7d0 <strnlen+0x104>
 740:	00178793          	add	a5,a5,1
 744:	0007c283          	lbu	t0,0(a5)
 748:	08028463          	beqz	t0,7d0 <strnlen+0x104>
 74c:	00178793          	add	a5,a5,1
 750:	0007c603          	lbu	a2,0(a5)
 754:	06060e63          	beqz	a2,7d0 <strnlen+0x104>
 758:	00178793          	add	a5,a5,1
 75c:	06f68663          	beq	a3,a5,7c8 <strnlen+0xfc>
 760:	0007c303          	lbu	t1,0(a5)
 764:	06030663          	beqz	t1,7d0 <strnlen+0x104>
 768:	0017c383          	lbu	t2,1(a5)
 76c:	00178793          	add	a5,a5,1
 770:	00078593          	mv	a1,a5
 774:	04038e63          	beqz	t2,7d0 <strnlen+0x104>
 778:	0017c803          	lbu	a6,1(a5)
 77c:	00178793          	add	a5,a5,1
 780:	04080863          	beqz	a6,7d0 <strnlen+0x104>
 784:	0025c883          	lbu	a7,2(a1)
 788:	00258793          	add	a5,a1,2
 78c:	04088263          	beqz	a7,7d0 <strnlen+0x104>
 790:	0035ce03          	lbu	t3,3(a1)
 794:	00358793          	add	a5,a1,3
 798:	020e0c63          	beqz	t3,7d0 <strnlen+0x104>
 79c:	0045ce83          	lbu	t4,4(a1)
 7a0:	00458793          	add	a5,a1,4
 7a4:	020e8663          	beqz	t4,7d0 <strnlen+0x104>
 7a8:	0055cf03          	lbu	t5,5(a1)
 7ac:	00558793          	add	a5,a1,5
 7b0:	020f0063          	beqz	t5,7d0 <strnlen+0x104>
 7b4:	0065cf83          	lbu	t6,6(a1)
 7b8:	00658793          	add	a5,a1,6
 7bc:	000f8a63          	beqz	t6,7d0 <strnlen+0x104>
 7c0:	00758793          	add	a5,a1,7
 7c4:	f8f69ee3          	bne	a3,a5,760 <strnlen+0x94>
 7c8:	40a68533          	sub	a0,a3,a0
 7cc:	00008067          	ret
 7d0:	40a78533          	sub	a0,a5,a0
 7d4:	00008067          	ret
 7d8:	00054e03          	lbu	t3,0(a0)
 7dc:	fe0e0ae3          	beqz	t3,7d0 <strnlen+0x104>
 7e0:	00150793          	add	a5,a0,1
 7e4:	f31ff06f          	j	714 <strnlen+0x48>
 7e8:	00000513          	li	a0,0
 7ec:	00008067          	ret

00000000000007f0 <strcmp>:
 7f0:	00054783          	lbu	a5,0(a0)
 7f4:	00158593          	add	a1,a1,1
 7f8:	00150513          	add	a0,a0,1
 7fc:	fff5c703          	lbu	a4,-1(a1)
 800:	00078a63          	beqz	a5,814 <strcmp+0x24>
 804:	fee786e3          	beq	a5,a4,7f0 <strcmp>
 808:	0007851b          	sext.w	a0,a5
 80c:	40e5053b          	subw	a0,a0,a4
 810:	00008067          	ret
 814:	00000513          	li	a0,0
 818:	ff5ff06f          	j	80c <strcmp+0x1c>

000000000000081c <strcpy>:
 81c:	00050793          	mv	a5,a0
 820:	0005c703          	lbu	a4,0(a1)
 824:	00178793          	add	a5,a5,1
 828:	00158593          	add	a1,a1,1
 82c:	fee78fa3          	sb	a4,-1(a5)
 830:	fe0718e3          	bnez	a4,820 <strcpy+0x4>
 834:	00008067          	ret

0000000000000838 <atol>:
 838:	00054703          	lbu	a4,0(a0)
 83c:	02000693          	li	a3,32
 840:	00050793          	mv	a5,a0
 844:	00d71863          	bne	a4,a3,854 <atol+0x1c>
 848:	0017c703          	lbu	a4,1(a5)
 84c:	00178793          	add	a5,a5,1
 850:	fed70ce3          	beq	a4,a3,848 <atol+0x10>
 854:	02d00293          	li	t0,45
 858:	06570063          	beq	a4,t0,8b8 <atol+0x80>
 85c:	02b00313          	li	t1,43
 860:	04670063          	beq	a4,t1,8a0 <atol+0x68>
 864:	0007c383          	lbu	t2,0(a5)
 868:	00000593          	li	a1,0
 86c:	04038263          	beqz	t2,8b0 <atol+0x78>
 870:	00000513          	li	a0,0
 874:	00178793          	add	a5,a5,1
 878:	fd03861b          	addw	a2,t2,-48
 87c:	00251813          	sll	a6,a0,0x2
 880:	0007c383          	lbu	t2,0(a5)
 884:	00a80533          	add	a0,a6,a0
 888:	00151893          	sll	a7,a0,0x1
 88c:	01160533          	add	a0,a2,a7
 890:	fe0392e3          	bnez	t2,874 <atol+0x3c>
 894:	02058063          	beqz	a1,8b4 <atol+0x7c>
 898:	40a00533          	neg	a0,a0
 89c:	00008067          	ret
 8a0:	0017c383          	lbu	t2,1(a5)
 8a4:	00000593          	li	a1,0
 8a8:	00178793          	add	a5,a5,1
 8ac:	fc0392e3          	bnez	t2,870 <atol+0x38>
 8b0:	00000513          	li	a0,0
 8b4:	00008067          	ret
 8b8:	0017c383          	lbu	t2,1(a5)
 8bc:	00100593          	li	a1,1
 8c0:	00178793          	add	a5,a5,1
 8c4:	fa0396e3          	bnez	t2,870 <atol+0x38>
 8c8:	00000513          	li	a0,0
 8cc:	fe9ff06f          	j	8b4 <atol+0x7c>

00000000000008d0 <main>:
 8d0:	00001537          	lui	a0,0x1
 8d4:	ff010113          	add	sp,sp,-16
 8d8:	80050513          	add	a0,a0,-2048 # 800 <strcmp+0x10>
 8dc:	00002597          	auipc	a1,0x2
 8e0:	27458593          	add	a1,a1,628 # 2b50 <input_data>
 8e4:	00113423          	sd	ra,8(sp)
 8e8:	fa4ff0ef          	jal	8c <sort>
 8ec:	00002717          	auipc	a4,0x2
 8f0:	26470713          	add	a4,a4,612 # 2b50 <input_data>
 8f4:	00000797          	auipc	a5,0x0
 8f8:	25c78793          	add	a5,a5,604 # b50 <verify_data>
 8fc:	00000513          	li	a0,0
 900:	00072603          	lw	a2,0(a4)
 904:	0007a583          	lw	a1,0(a5)
 908:	00472683          	lw	a3,4(a4)
 90c:	0047a803          	lw	a6,4(a5)
 910:	0006809b          	sext.w	ra,a3
 914:	10c59c63          	bne	a1,a2,a2c <main+0x15c>
 918:	0025051b          	addw	a0,a0,2
 91c:	11009263          	bne	ra,a6,a20 <main+0x150>
 920:	00872283          	lw	t0,8(a4)
 924:	0087a883          	lw	a7,8(a5)
 928:	00c72383          	lw	t2,12(a4)
 92c:	00c7a303          	lw	t1,12(a5)
 930:	00870e13          	add	t3,a4,8
 934:	00878e93          	add	t4,a5,8
 938:	00038f1b          	sext.w	t5,t2
 93c:	0e589863          	bne	a7,t0,a2c <main+0x15c>
 940:	0025051b          	addw	a0,a0,2
 944:	0c6f1e63          	bne	t5,t1,a20 <main+0x150>
 948:	01072f83          	lw	t6,16(a4)
 94c:	0107a603          	lw	a2,16(a5)
 950:	01472583          	lw	a1,20(a4)
 954:	0147a683          	lw	a3,20(a5)
 958:	0005881b          	sext.w	a6,a1
 95c:	0df61863          	bne	a2,t6,a2c <main+0x15c>
 960:	0025051b          	addw	a0,a0,2
 964:	0ad81e63          	bne	a6,a3,a20 <main+0x150>
 968:	01872083          	lw	ra,24(a4)
 96c:	0187a283          	lw	t0,24(a5)
 970:	01c72883          	lw	a7,28(a4)
 974:	01c7a383          	lw	t2,28(a5)
 978:	0008831b          	sext.w	t1,a7
 97c:	0a129863          	bne	t0,ra,a2c <main+0x15c>
 980:	0025051b          	addw	a0,a0,2
 984:	08731e63          	bne	t1,t2,a20 <main+0x150>
 988:	02072f03          	lw	t5,32(a4)
 98c:	0207af83          	lw	t6,32(a5)
 990:	02472703          	lw	a4,36(a4)
 994:	0247a783          	lw	a5,36(a5)
 998:	0007061b          	sext.w	a2,a4
 99c:	09ef9863          	bne	t6,t5,a2c <main+0x15c>
 9a0:	0025051b          	addw	a0,a0,2
 9a4:	06f61e63          	bne	a2,a5,a20 <main+0x150>
 9a8:	020e2683          	lw	a3,32(t3)
 9ac:	020ea583          	lw	a1,32(t4)
 9b0:	024e2083          	lw	ra,36(t3)
 9b4:	024ea803          	lw	a6,36(t4)
 9b8:	0000829b          	sext.w	t0,ra
 9bc:	06d59863          	bne	a1,a3,a2c <main+0x15c>
 9c0:	0025051b          	addw	a0,a0,2
 9c4:	05029e63          	bne	t0,a6,a20 <main+0x150>
 9c8:	028e2883          	lw	a7,40(t3)
 9cc:	028ea383          	lw	t2,40(t4)
 9d0:	02ce2303          	lw	t1,44(t3)
 9d4:	02ceaf03          	lw	t5,44(t4)
 9d8:	00030f9b          	sext.w	t6,t1
 9dc:	05139863          	bne	t2,a7,a2c <main+0x15c>
 9e0:	0025051b          	addw	a0,a0,2
 9e4:	03ef9e63          	bne	t6,t5,a20 <main+0x150>
 9e8:	030e2603          	lw	a2,48(t3)
 9ec:	030ea683          	lw	a3,48(t4)
 9f0:	034e2703          	lw	a4,52(t3)
 9f4:	034ea583          	lw	a1,52(t4)
 9f8:	0007009b          	sext.w	ra,a4
 9fc:	02c69863          	bne	a3,a2,a2c <main+0x15c>
 a00:	0025051b          	addw	a0,a0,2
 a04:	00b09e63          	bne	ra,a1,a20 <main+0x150>
 a08:	8005081b          	addw	a6,a0,-2048
 a0c:	038e0713          	add	a4,t3,56
 a10:	038e8793          	add	a5,t4,56
 a14:	ee0816e3          	bnez	a6,900 <main+0x30>
 a18:	00bc6537          	lui	a0,0xbc6
 a1c:	14e50513          	add	a0,a0,334 # bc614e <STACK+0xbbf4fe>
 a20:	00813083          	ld	ra,8(sp)
 a24:	01010113          	add	sp,sp,16
 a28:	00008067          	ret
 a2c:	0015051b          	addw	a0,a0,1
 a30:	ff1ff06f          	j	a20 <main+0x150>

0000000000000a34 <end>:
 a34:	00000013          	nop
 a38:	00000013          	nop
 a3c:	00000013          	nop
 a40:	00000013          	nop
 a44:	00000013          	nop
 a48:	00000013          	nop

0000000000000a4c <_last>:
 a4c:	fe9ff06f          	j	a34 <end>
